target datalayout = "e-m:e-p270:32:32-p271:32:32-p272:64:64-i64:64-i128:128-f80:128-n8:16:32:64-S128"
target triple = "x86_64-pc-linux-gnu"

%"class.icu_77::UCharCharacterIterator" = type { %"class.icu_77::CharacterIterator", ptr }
%"class.icu_77::CharacterIterator" = type { %"class.icu_77::ForwardCharacterIterator", i32, i32, i32, i32 }
%"class.icu_77::ForwardCharacterIterator" = type { %"class.icu_77::UObject" }
%"class.icu_77::UObject" = type { ptr }

; Function Attrs: mustprogress nounwind uwtable
define noundef zeroext i16 @_ZN6icu_7722UCharCharacterIterator8setIndexEi(ptr noundef nonnull align 8 dereferenceable(32) %0, i32 noundef %1) unnamed_addr #0 align 2 {
  %3 = alloca i16, align 2
  %4 = alloca ptr, align 8
  %5 = alloca i32, align 4
  store ptr %0, ptr %4, align 8, !tbaa !3
  store i32 %1, ptr %5, align 4, !tbaa !19
  %6 = load ptr, ptr %4, align 8
  %7 = load i32, ptr %5, align 4, !tbaa !19
  %8 = getelementptr inbounds nuw %"class.icu_77::CharacterIterator", ptr %6, i32 0, i32 3
  %9 = load i32, ptr %8, align 8, !tbaa !24
  %10 = icmp slt i32 %7, %9
  br i1 %10, label %11, label %15

11:                                               ; preds = %2
  %12 = getelementptr inbounds nuw %"class.icu_77::CharacterIterator", ptr %6, i32 0, i32 3
  %13 = load i32, ptr %12, align 8, !tbaa !24
  %14 = getelementptr inbounds nuw %"class.icu_77::CharacterIterator", ptr %6, i32 0, i32 2
  store i32 %13, ptr %14, align 4, !tbaa !23
  br label %28

15:                                               ; preds = %2
  %16 = load i32, ptr %5, align 4, !tbaa !19
  %17 = getelementptr inbounds nuw %"class.icu_77::CharacterIterator", ptr %6, i32 0, i32 4
  %18 = load i32, ptr %17, align 4, !tbaa !25
  %19 = icmp sgt i32 %16, %18
  br i1 %19, label %20, label %24

20:                                               ; preds = %15
  %21 = getelementptr inbounds nuw %"class.icu_77::CharacterIterator", ptr %6, i32 0, i32 4
  %22 = load i32, ptr %21, align 4, !tbaa !25
  %23 = getelementptr inbounds nuw %"class.icu_77::CharacterIterator", ptr %6, i32 0, i32 2
  store i32 %22, ptr %23, align 4, !tbaa !23
  br label %27

24:                                               ; preds = %15
  %25 = load i32, ptr %5, align 4, !tbaa !19
  %26 = getelementptr inbounds nuw %"class.icu_77::CharacterIterator", ptr %6, i32 0, i32 2
  store i32 %25, ptr %26, align 4, !tbaa !23
  br label %27

27:                                               ; preds = %24, %20
  br label %28

28:                                               ; preds = %27, %11
  %29 = getelementptr inbounds nuw %"class.icu_77::CharacterIterator", ptr %6, i32 0, i32 2
  %30 = load i32, ptr %29, align 4, !tbaa !23
  %31 = getelementptr inbounds nuw %"class.icu_77::CharacterIterator", ptr %6, i32 0, i32 4
  %32 = load i32, ptr %31, align 4, !tbaa !25
  %33 = icmp slt i32 %30, %32
  br i1 %33, label %34, label %42

34:                                               ; preds = %28
  %35 = getelementptr inbounds nuw %"class.icu_77::UCharCharacterIterator", ptr %6, i32 0, i32 1
  %36 = load ptr, ptr %35, align 8, !tbaa !10
  %37 = getelementptr inbounds nuw %"class.icu_77::CharacterIterator", ptr %6, i32 0, i32 2
  %38 = load i32, ptr %37, align 4, !tbaa !23
  %39 = sext i32 %38 to i64
  %40 = getelementptr inbounds i16, ptr %36, i64 %39
  %41 = load i16, ptr %40, align 2, !tbaa !28
  store i16 %41, ptr %3, align 2
  br label %43

42:                                               ; preds = %28
  store i16 -1, ptr %3, align 2
  br label %43

43:                                               ; preds = %42, %34
  %44 = load i16, ptr %3, align 2
  ret i16 %44
}