; Function Attrs: mustprogress nofree norecurse nosync nounwind willreturn memory(read, argmem: readwrite, inaccessiblemem: none) uwtable
define noundef zeroext i16 @_ZN6icu_7722UCharCharacterIterator8setIndexEi(ptr noundef nonnull align 8 captures(none) dereferenceable(32) initializes((12, 16)) %0, i32 noundef %1) unnamed_addr #7 align 2 {
  %3 = getelementptr inbounds nuw i8, ptr %0, i64 16
  %4 = load i32, ptr %3, align 8, !tbaa !23
  %5 = icmp slt i32 %1, %4
  br i1 %5, label %6, label %8

6:                                                ; preds = %2
  %7 = getelementptr inbounds nuw i8, ptr %0, i64 12
  store i32 %4, ptr %7, align 4, !tbaa !22
  %.phi.trans.insert = getelementptr inbounds nuw i8, ptr %0, i64 20
  %.pre = load i32, ptr %.phi.trans.insert, align 4, !tbaa !24
  br label %14

8:                                                ; preds = %2
  %9 = getelementptr inbounds nuw i8, ptr %0, i64 20
  %10 = load i32, ptr %9, align 4, !tbaa !24
  %11 = icmp sgt i32 %1, %10
  %12 = getelementptr inbounds nuw i8, ptr %0, i64 12
  br i1 %11, label %.thread, label %13

.thread:                                          ; preds = %8
  store i32 %10, ptr %12, align 4, !tbaa !22
  br label %24

13:                                               ; preds = %8
  store i32 %1, ptr %12, align 4, !tbaa !22
  br label %14

14:                                               ; preds = %13, %6
  %15 = phi i32 [ %10, %13 ], [ %.pre, %6 ]
  %16 = phi i32 [ %1, %13 ], [ %4, %6 ]
  %17 = icmp slt i32 %16, %15
  br i1 %17, label %18, label %24

18:                                               ; preds = %14
  %19 = getelementptr inbounds nuw i8, ptr %0, i64 24
  %20 = load ptr, ptr %19, align 8, !tbaa !6
  %21 = sext i32 %16 to i64
  %22 = getelementptr inbounds i16, ptr %20, i64 %21
  %23 = load i16, ptr %22, align 2, !tbaa !25
  br label %24

24:                                               ; preds = %.thread, %14, %18
  %.0 = phi i16 [ %23, %18 ], [ -1, %14 ], [ -1, %.thread ]
  ret i16 %.0
}